target datalayout = "e-m:e-p270:32:32-p271:32:32-p272:64:64-i64:64-i128:128-f80:128-n8:16:32:64-S128"
target triple = "x86_64-pc-linux-gnu"

@.str.5 = private unnamed_addr constant [127 x i8] c"unable to directly request hinted aligned OS memory (error: %d (0x%x), size: 0x%zx bytes, alignment: 0x%zx, hint address: %p)\0A\00", align 1

; Function Attrs: inlinehint nounwind uwtable
define internal zeroext i1 @_mi_is_aligned(ptr noundef %0, i64 noundef %1) #5 {
  %3 = alloca ptr, align 8
  %4 = alloca i64, align 8
  store ptr %0, ptr %3, align 8, !tbaa !25
  store i64 %1, ptr %4, align 8, !tbaa !8
  %5 = load ptr, ptr %3, align 8, !tbaa !25
  %6 = ptrtoint ptr %5 to i64
  %7 = load i64, ptr %4, align 8, !tbaa !8
  %8 = urem i64 %6, %7
  %9 = icmp eq i64 %8, 0
  ret i1 %9
}

; Function Attrs: nounwind uwtable
define internal ptr @unix_mmap_prim(ptr noundef %0, i64 noundef %1, i64 noundef %2, i32 noundef %3, i32 noundef %4, i32 noundef %5) #0 {
  %7 = alloca ptr, align 8
  %8 = alloca ptr, align 8
  %9 = alloca i64, align 8
  %10 = alloca i64, align 8
  %11 = alloca i32, align 4
  %12 = alloca i32, align 4
  %13 = alloca i32, align 4
  %14 = alloca ptr, align 8
  %15 = alloca ptr, align 8
  %16 = alloca i32, align 4
  %17 = alloca i32, align 4
  store ptr %0, ptr %8, align 8, !tbaa !25
  store i64 %1, ptr %9, align 8, !tbaa !8
  store i64 %2, ptr %10, align 8, !tbaa !8
  store i32 %3, ptr %11, align 4, !tbaa !19
  store i32 %4, ptr %12, align 4, !tbaa !19
  store i32 %5, ptr %13, align 4, !tbaa !19
  call void @llvm.lifetime.start.p0(i64 8, ptr %14) #6
  store ptr null, ptr %14, align 8, !tbaa !25
  %18 = load ptr, ptr %8, align 8, !tbaa !25
  %19 = icmp eq ptr %18, null
  br i1 %19, label %20, label %57

20:                                               ; preds = %6
  call void @llvm.lifetime.start.p0(i64 8, ptr %15) #6
  %21 = load i64, ptr %10, align 8, !tbaa !8
  %22 = load i64, ptr %9, align 8, !tbaa !8
  %23 = call ptr @_mi_os_get_aligned_hint(i64 noundef %21, i64 noundef %22) #8
  store ptr %23, ptr %15, align 8, !tbaa !25
  %24 = load ptr, ptr %15, align 8, !tbaa !25
  %25 = icmp ne ptr %24, null
  br i1 %25, label %26, label %53

26:                                               ; preds = %20
  %27 = load ptr, ptr %15, align 8, !tbaa !25
  %28 = load i64, ptr %9, align 8, !tbaa !8
  %29 = load i32, ptr %11, align 4, !tbaa !19
  %30 = load i32, ptr %12, align 4, !tbaa !19
  %31 = load i32, ptr %13, align 4, !tbaa !19
  %32 = call ptr @mmap(ptr noundef %27, i64 noundef %28, i32 noundef %29, i32 noundef %30, i32 noundef %31, i64 noundef 0) #7
  store ptr %32, ptr %14, align 8, !tbaa !25
  %33 = load ptr, ptr %14, align 8, !tbaa !25
  %34 = icmp eq ptr %33, inttoptr (i64 -1 to ptr)
  br i1 %34, label %39, label %35

35:                                               ; preds = %26
  %36 = load ptr, ptr %14, align 8, !tbaa !25
  %37 = load i64, ptr %10, align 8, !tbaa !8
  %38 = call zeroext i1 @_mi_is_aligned(ptr noundef %36, i64 noundef %37) #8
  br i1 %38, label %47, label %39

39:                                               ; preds = %35, %26
  call void @llvm.lifetime.start.p0(i64 4, ptr %16) #6
  %40 = call ptr @__errno_location() #9
  %41 = load i32, ptr %40, align 4, !tbaa !19
  store i32 %41, ptr %16, align 4, !tbaa !19
  %42 = load i32, ptr %16, align 4, !tbaa !19
  %43 = load i32, ptr %16, align 4, !tbaa !19
  %44 = load i64, ptr %9, align 8, !tbaa !8
  %45 = load i64, ptr %10, align 8, !tbaa !8
  %46 = load ptr, ptr %15, align 8, !tbaa !25
  call void (ptr, ...) @_mi_trace_message(ptr noundef @.str.5, i32 noundef %42, i32 noundef %43, i64 noundef %44, i64 noundef %45, ptr noundef %46) #8
  call void @llvm.lifetime.end.p0(i64 4, ptr %16) #6
  br label %47

47:                                               ; preds = %39, %35
  %48 = load ptr, ptr %14, align 8, !tbaa !25
  %49 = icmp ne ptr %48, inttoptr (i64 -1 to ptr)
  br i1 %49, label %50, label %52

50:                                               ; preds = %47
  %51 = load ptr, ptr %14, align 8, !tbaa !25
  store ptr %51, ptr %7, align 8
  store i32 1, ptr %17, align 4
  br label %54

52:                                               ; preds = %47
  br label %53

53:                                               ; preds = %52, %20
  store i32 0, ptr %17, align 4
  br label %54

54:                                               ; preds = %53, %50
  call void @llvm.lifetime.end.p0(i64 8, ptr %15) #6
  %55 = load i32, ptr %17, align 4
  switch i32 %55, label %69 [
    i32 0, label %56
  ]

56:                                               ; preds = %54
  br label %57

57:                                               ; preds = %56, %6
  %58 = load ptr, ptr %8, align 8, !tbaa !25
  %59 = load i64, ptr %9, align 8, !tbaa !8
  %60 = load i32, ptr %11, align 4, !tbaa !19
  %61 = load i32, ptr %12, align 4, !tbaa !19
  %62 = load i32, ptr %13, align 4, !tbaa !19
  %63 = call ptr @mmap(ptr noundef %58, i64 noundef %59, i32 noundef %60, i32 noundef %61, i32 noundef %62, i64 noundef 0) #7
  store ptr %63, ptr %14, align 8, !tbaa !25
  %64 = load ptr, ptr %14, align 8, !tbaa !25
  %65 = icmp ne ptr %64, inttoptr (i64 -1 to ptr)
  br i1 %65, label %66, label %68

66:                                               ; preds = %57
  %67 = load ptr, ptr %14, align 8, !tbaa !25
  store ptr %67, ptr %7, align 8
  store i32 1, ptr %17, align 4
  br label %69

68:                                               ; preds = %57
  store ptr null, ptr %7, align 8
  store i32 1, ptr %17, align 4
  br label %69

69:                                               ; preds = %68, %66, %54
  call void @llvm.lifetime.end.p0(i64 8, ptr %14) #6
  %70 = load ptr, ptr %7, align 8
  ret ptr %70
}