; Function Attrs: nounwind uwtable
define internal fastcc ptr @unix_mmap_prim(ptr noundef %0, i64 noundef %1, i64 noundef %2, i32 noundef range(i32 0, 4) %3, i32 noundef range(i32 34, 2013528099) %4) unnamed_addr #0 {
  %6 = icmp eq ptr %0, null
  br i1 %6, label %7, label %21

7:                                                ; preds = %5
  %8 = tail call ptr @_mi_os_get_aligned_hint(i64 noundef %2, i64 noundef %1) #10
  %.not = icmp eq ptr %8, null
  br i1 %.not, label %21, label %9

9:                                                ; preds = %7
  %10 = tail call ptr @mmap(ptr noundef nonnull %8, i64 noundef %1, i32 noundef %3, i32 noundef %4, i32 noundef -1, i64 noundef 0) #10
  %11 = icmp eq ptr %10, inttoptr (i64 -1 to ptr)
  br i1 %11, label %.critedge, label %12

12:                                               ; preds = %9
  %13 = ptrtoint ptr %10 to i64
  %14 = urem i64 %13, %2
  %15 = icmp eq i64 %14, 0
  br i1 %15, label %.thread34, label %16

16:                                               ; preds = %12
  %17 = tail call ptr @__errno_location() #12
  %18 = load i32, ptr %17, align 4, !tbaa !15
  tail call void (ptr, ...) @_mi_trace_message(ptr noundef nonnull @.str.5, i32 noundef %18, i32 noundef %18, i64 noundef %1, i64 noundef %2, ptr noundef nonnull %8) #10
  br label %.thread34

.critedge:                                        ; preds = %9
  %19 = tail call ptr @__errno_location() #12
  %20 = load i32, ptr %19, align 4, !tbaa !15
  tail call void (ptr, ...) @_mi_trace_message(ptr noundef nonnull @.str.5, i32 noundef %20, i32 noundef %20, i64 noundef %1, i64 noundef %2, ptr noundef nonnull %8) #10
  br label %21

21:                                               ; preds = %.critedge, %7, %5
  %22 = tail call ptr @mmap(ptr noundef %0, i64 noundef %1, i32 noundef %3, i32 noundef %4, i32 noundef -1, i64 noundef 0) #10
  %.not33 = icmp eq ptr %22, inttoptr (i64 -1 to ptr)
  %. = select i1 %.not33, ptr null, ptr %22
  br label %.thread34

.thread34:                                        ; preds = %16, %12, %21
  %.1 = phi ptr [ %., %21 ], [ %10, %16 ], [ %10, %12 ]
  ret ptr %.1
}